; Function Attrs: null_pointer_is_valid sspstrong uwtable
define internal fastcc ptr @get_tpt_conversation(ptr noundef %0) unnamed_addr #0 {
  %2 = tail call ptr @find_or_create_conversation(ptr noundef %0)
  %3 = load ptr, ptr @stream_jxta_handle, align 8
  tail call void @conversation_set_dissector(ptr noundef %2, ptr noundef %3)
  %4 = load i32, ptr @proto_jxta, align 4
  %5 = tail call ptr @conversation_get_proto_data(ptr noundef %2, i32 noundef %4)
  %6 = icmp eq ptr %5, null
  br i1 %6, label %7, label %51

7:                                                ; preds = %1
  %8 = tail call ptr @wmem_file_scope()
  %9 = tail call noalias dereferenceable_or_null(120) ptr @wmem_alloc(ptr noundef %8, i64 noundef 120) #17
  %10 = getelementptr inbounds nuw i8, ptr %0, i64 280
  %11 = load i32, ptr %10, align 8
  store i32 %11, ptr %9, align 8
  %12 = tail call ptr @wmem_file_scope()
  %13 = getelementptr inbounds nuw i8, ptr %9, i64 8
  %14 = getelementptr inbounds nuw i8, ptr %0, i64 208
  %15 = load i32, ptr %14, align 8
  %16 = getelementptr inbounds nuw i8, ptr %0, i64 212
  %17 = load i32, ptr %16, align 4
  %18 = getelementptr inbounds nuw i8, ptr %0, i64 216
  %19 = load ptr, ptr %18, align 8
  tail call void @llvm.memset.p0.i64(ptr noundef nonnull align 8 dereferenceable(24) %13, i8 0, i64 24, i1 false)
  store i32 %15, ptr %13, align 8
  %20 = icmp eq i32 %17, 0
  br i1 %20, label %copy_address_wmem.exit, label %21

21:                                               ; preds = %7
  %22 = sext i32 %17 to i64
  %23 = tail call ptr @wmem_memdup(ptr noundef %12, ptr noundef %19, i64 noundef %22) #16
  %24 = getelementptr inbounds nuw i8, ptr %9, i64 24
  store ptr %23, ptr %24, align 8
  %25 = getelementptr inbounds nuw i8, ptr %9, i64 16
  store ptr %23, ptr %25, align 8
  %26 = getelementptr inbounds nuw i8, ptr %9, i64 12
  store i32 %17, ptr %26, align 4
  br label %copy_address_wmem.exit

copy_address_wmem.exit:                           ; preds = %7, %21
  %27 = getelementptr inbounds nuw i8, ptr %0, i64 284
  %28 = load i32, ptr %27, align 4
  %29 = getelementptr inbounds nuw i8, ptr %9, i64 32
  store i32 %28, ptr %29, align 8
  %30 = getelementptr inbounds nuw i8, ptr %9, i64 36
  tail call void @llvm.memset.p0.i64(ptr noundef nonnull align 4 dereferenceable(28) %30, i8 0, i64 28, i1 false)
  %31 = tail call ptr @wmem_file_scope()
  %32 = getelementptr inbounds nuw i8, ptr %9, i64 64
  %33 = getelementptr inbounds nuw i8, ptr %0, i64 232
  %34 = load i32, ptr %33, align 8
  %35 = getelementptr inbounds nuw i8, ptr %0, i64 236
  %36 = load i32, ptr %35, align 4
  %37 = getelementptr inbounds nuw i8, ptr %0, i64 240
  %38 = load ptr, ptr %37, align 8
  tail call void @llvm.memset.p0.i64(ptr noundef nonnull align 8 dereferenceable(24) %32, i8 0, i64 24, i1 false)
  store i32 %34, ptr %32, align 8
  %39 = icmp eq i32 %36, 0
  br i1 %39, label %copy_address_wmem.exit22, label %40

40:                                               ; preds = %copy_address_wmem.exit
  %41 = sext i32 %36 to i64
  %42 = tail call ptr @wmem_memdup(ptr noundef %31, ptr noundef %38, i64 noundef %41) #16
  %43 = getelementptr inbounds nuw i8, ptr %9, i64 80
  store ptr %42, ptr %43, align 8
  %44 = getelementptr inbounds nuw i8, ptr %9, i64 72
  store ptr %42, ptr %44, align 8
  %45 = getelementptr inbounds nuw i8, ptr %9, i64 68
  store i32 %36, ptr %45, align 4
  br label %copy_address_wmem.exit22

copy_address_wmem.exit22:                         ; preds = %copy_address_wmem.exit, %40
  %46 = getelementptr inbounds nuw i8, ptr %0, i64 288
  %47 = load i32, ptr %46, align 8
  %48 = getelementptr inbounds nuw i8, ptr %9, i64 88
  store i32 %47, ptr %48, align 8
  %49 = getelementptr inbounds nuw i8, ptr %9, i64 92
  tail call void @llvm.memset.p0.i64(ptr noundef nonnull align 4 dereferenceable(28) %49, i8 0, i64 28, i1 false)
  %50 = load i32, ptr @proto_jxta, align 4
  tail call void @conversation_add_proto_data(ptr noundef %2, i32 noundef %50, ptr noundef %9)
  br label %51

51:                                               ; preds = %copy_address_wmem.exit22, %1
  %.0 = phi ptr [ %9, %copy_address_wmem.exit22 ], [ %5, %1 ]
  ret ptr %.0
}